target datalayout = "e-m:e-p270:32:32-p271:32:32-p272:64:64-i64:64-i128:128-f80:128-n8:16:32:64-S128"
target triple = "x86_64-pc-linux-gnu"

@proto_register_lwm.ett = internal global [4 x ptr] [ptr @ett_lwm, ptr @ett_lwm_fcf, ptr @ett_lwm_multi_tree, ptr @ett_lwm_cmd_tree], align 16
@.str.86 = private unnamed_addr constant [26 x i8] c"Lightweight Mesh (v1.1.1)\00", align 1
@.str.87 = private unnamed_addr constant [7 x i8] c"LwMesh\00", align 1
@.str.88 = private unnamed_addr constant [4 x i8] c"lwm\00", align 1
@proto_lwm = internal global i32 0, align 4
@.str.89 = private unnamed_addr constant [10 x i8] c"lwmes_key\00", align 1
@.str.90 = private unnamed_addr constant [18 x i8] c"Lw Decryption key\00", align 1
@.str.91 = private unnamed_addr constant [45 x i8] c"128-bit decryption key in hexadecimal format\00", align 1
@lwmes_key_str = internal global ptr null, align 8
@lwm_handle = internal global ptr null, align 8

; Function Attrs: null_pointer_is_valid sspstrong uwtable
define hidden void @proto_register_lwm() #0 {
  %1 = alloca ptr, align 8
  %2 = alloca ptr, align 8
  call void @llvm.lifetime.start.p0(i64 8, ptr %1) #6
  call void @llvm.lifetime.start.p0(i64 8, ptr %2) #6
  %3 = call i32 @proto_register_protocol(ptr noundef @.str.86, ptr noundef @.str.87, ptr noundef @.str.88)
  store i32 %3, ptr @proto_lwm, align 4
  %4 = load i32, ptr @proto_lwm, align 4
  call void @proto_register_field_array(i32 noundef %4, ptr noundef @proto_register_lwm.hf, i32 noundef 25)
  call void @proto_register_subtree_array(ptr noundef @proto_register_lwm.ett, i32 noundef 4)
  %5 = load i32, ptr @proto_lwm, align 4
  %6 = call ptr @expert_register_protocol(i32 noundef %5)
  store ptr %6, ptr %2, align 8
  %7 = load ptr, ptr %2, align 8
  call void @expert_register_field_array(ptr noundef %7, ptr noundef @proto_register_lwm.ei, i32 noundef 6)
  %8 = load i32, ptr @proto_lwm, align 4
  %9 = call ptr @prefs_register_protocol(i32 noundef %8, ptr noundef @proto_reg_handoff_lwm)
  store ptr %9, ptr %1, align 8
  %10 = load ptr, ptr %1, align 8
  call void @prefs_register_string_preference(ptr noundef %10, ptr noundef @.str.89, ptr noundef @.str.90, ptr noundef @.str.91, ptr noundef @lwmes_key_str)
  %11 = load i32, ptr @proto_lwm, align 4
  %12 = call ptr @register_dissector(ptr noundef @.str.88, ptr noundef @dissect_lwm, i32 noundef %11)
  store ptr %12, ptr @lwm_handle, align 8
  call void @llvm.lifetime.end.p0(i64 8, ptr %2) #6
  call void @llvm.lifetime.end.p0(i64 8, ptr %1) #6
  ret void
}