; Function Attrs: null_pointer_is_valid sspstrong uwtable
define hidden void @proto_register_lwm() local_unnamed_addr #0 {
  %1 = tail call i32 @proto_register_protocol(ptr noundef nonnull @.str.86, ptr noundef nonnull @.str.87, ptr noundef nonnull @.str.88)
  store i32 %1, ptr @proto_lwm, align 4
  tail call void @proto_register_field_array(i32 noundef %1, ptr noundef nonnull @proto_register_lwm.hf, i32 noundef 25)
  tail call void @proto_register_subtree_array(ptr noundef nonnull @proto_register_lwm.ett, i32 noundef 4)
  %2 = load i32, ptr @proto_lwm, align 4
  %3 = tail call ptr @expert_register_protocol(i32 noundef %2)
  tail call void @expert_register_field_array(ptr noundef %3, ptr noundef nonnull @proto_register_lwm.ei, i32 noundef 6)
  %4 = load i32, ptr @proto_lwm, align 4
  %5 = tail call ptr @prefs_register_protocol(i32 noundef %4, ptr noundef nonnull @proto_reg_handoff_lwm)
  tail call void @prefs_register_string_preference(ptr noundef %5, ptr noundef nonnull @.str.89, ptr noundef nonnull @.str.90, ptr noundef nonnull @.str.91, ptr noundef nonnull @lwmes_key_str)
  %6 = load i32, ptr @proto_lwm, align 4
  %7 = tail call ptr @register_dissector(ptr noundef nonnull @.str.88, ptr noundef nonnull @dissect_lwm, i32 noundef %6)
  store ptr %7, ptr @lwm_handle, align 8
  ret void
}